target datalayout = "e-m:e-p270:32:32-p271:32:32-p272:64:64-i64:64-i128:128-f80:128-n8:16:32:64-S128"
target triple = "x86_64-unknown-linux-gnu"

; Function Attrs: nounwind sspstrong uwtable
define internal i64 @sdhci_s3c_read(ptr noundef %opaque, i64 noundef %offset, i32 noundef %size) #0 {
entry:
  %opaque.addr = alloca ptr, align 8
  %offset.addr = alloca i64, align 8
  %size.addr = alloca i32, align 4
  %ret = alloca i64, align 8
  store ptr %opaque, ptr %opaque.addr, align 8
  store i64 %offset, ptr %offset.addr, align 8
  store i32 %size, ptr %size.addr, align 4
  %0 = load i64, ptr %offset.addr, align 8
  switch i64 %0, label %sw.default [
    i64 128, label %sw.bb
    i64 132, label %sw.bb
    i64 140, label %sw.bb
  ]

sw.bb:                                            ; preds = %entry, %entry, %entry
  store i64 0, ptr %ret, align 8
  br label %sw.epilog

sw.default:                                       ; preds = %entry
  %1 = load ptr, ptr %opaque.addr, align 8
  %2 = load i64, ptr %offset.addr, align 8
  %3 = load i32, ptr %size.addr, align 4
  %call = call i64 @sdhci_read(ptr noundef %1, i64 noundef %2, i32 noundef %3)
  store i64 %call, ptr %ret, align 8
  br label %sw.epilog

sw.epilog:                                        ; preds = %sw.default, %sw.bb
  %4 = load i64, ptr %ret, align 8
  ret i64 %4
}