; Function Attrs: nounwind sspstrong uwtable
define internal range(i64 0, 4294967296) i64 @sdhci_s3c_read(ptr noundef %opaque, i64 noundef %offset, i32 noundef %size) #0 {
entry:
  switch i64 %offset, label %sw.default [
    i64 128, label %sw.epilog
    i64 132, label %sw.epilog
    i64 140, label %sw.epilog
  ]

sw.default:                                       ; preds = %entry
  %call = tail call i64 @sdhci_read(ptr noundef %opaque, i64 noundef %offset, i32 noundef %size)
  br label %sw.epilog

sw.epilog:                                        ; preds = %entry, %entry, %entry, %sw.default
  %ret.0 = phi i64 [ %call, %sw.default ], [ 0, %entry ], [ 0, %entry ], [ 0, %entry ]
  ret i64 %ret.0
}